target datalayout = "e-m:e-p270:32:32-p271:32:32-p272:64:64-i64:64-i128:128-f80:128-n8:16:32:64-S128"
target triple = "x86_64-pc-linux-gnu"

%struct.BEValue = type { i8, i32, ptr, ptr, ptr }
%struct.GenContext_ = type { i8, ptr, ptr, ptr, ptr, ptr, ptr, ptr, ptr, ptr, ptr, ptr, ptr, ptr, ptr, ptr, ptr, ptr, ptr, ptr, ptr, ptr, ptr, ptr, ptr, ptr, ptr, ptr, ptr, ptr, ptr, ptr, ptr, %struct.anon.85, i32, i32, %struct.DebugContext, ptr, ptr, ptr, %struct.BEValue, i8, %union.SourceSpan, ptr, ptr, ptr, ptr }
%struct.anon.85 = type { ptr, ptr, ptr }
%struct.DebugContext = type { i16, ptr, ptr, %struct.DebugFile_, ptr, ptr, ptr, ptr }
%struct.DebugFile_ = type { i16, ptr }
%union.SourceSpan = type { i64 }

@.str.3 = private unnamed_addr constant [1 x i8] zeroinitializer, align 1
@type_bool = external global ptr, align 8
@type_typeid = external global ptr, align 8
@.str.48 = private unnamed_addr constant [14 x i8] c"check_subtype\00", align 1
@.str.49 = private unnamed_addr constant [13 x i8] c"result_block\00", align 1
@.str.50 = private unnamed_addr constant [18 x i8] c"parent_type_block\00", align 1
@type_voidptr = external global ptr, align 8
@.str.51 = private unnamed_addr constant [14 x i8] c"typeid.parent\00", align 1

; Function Attrs: nounwind uwtable
define internal void @llvm_set_phi(ptr noundef %0, ptr noundef %1, ptr noundef %2, ptr noundef %3, ptr noundef %4) #0 {
  %6 = alloca ptr, align 8
  %7 = alloca ptr, align 8
  %8 = alloca ptr, align 8
  %9 = alloca ptr, align 8
  %10 = alloca ptr, align 8
  %11 = alloca [2 x ptr], align 16
  %12 = alloca [2 x ptr], align 16
  store ptr %0, ptr %6, align 8
  store ptr %1, ptr %7, align 8
  store ptr %2, ptr %8, align 8
  store ptr %3, ptr %9, align 8
  store ptr %4, ptr %10, align 8
  %13 = getelementptr inbounds [2 x ptr], ptr %11, i64 0, i64 0
  %14 = load ptr, ptr %7, align 8
  store ptr %14, ptr %13, align 8
  %15 = getelementptr inbounds ptr, ptr %13, i64 1
  %16 = load ptr, ptr %9, align 8
  store ptr %16, ptr %15, align 8
  %17 = getelementptr inbounds [2 x ptr], ptr %12, i64 0, i64 0
  %18 = load ptr, ptr %8, align 8
  store ptr %18, ptr %17, align 8
  %19 = getelementptr inbounds ptr, ptr %17, i64 1
  %20 = load ptr, ptr %10, align 8
  store ptr %20, ptr %19, align 8
  %21 = load ptr, ptr %6, align 8
  %22 = getelementptr inbounds [2 x ptr], ptr %11, i64 0, i64 0
  %23 = getelementptr inbounds [2 x ptr], ptr %12, i64 0, i64 0
  call void @LLVMAddIncoming(ptr noundef %21, ptr noundef %22, ptr noundef %23, i32 noundef 2)
  ret void
}

; Function Attrs: nounwind uwtable
define dso_local void @llvm_emit_lhs_is_subtype(ptr noundef %0, ptr noundef %1, ptr noundef %2, ptr noundef %3) #0 {
  %5 = alloca ptr, align 8
  %6 = alloca ptr, align 8
  %7 = alloca ptr, align 8
  %8 = alloca ptr, align 8
  %9 = alloca ptr, align 8
  %10 = alloca ptr, align 8
  %11 = alloca ptr, align 8
  %12 = alloca ptr, align 8
  %13 = alloca ptr, align 8
  %14 = alloca ptr, align 8
  %15 = alloca ptr, align 8
  %16 = alloca %struct.BEValue, align 8
  %17 = alloca ptr, align 8
  %18 = alloca i32, align 4
  %19 = alloca ptr, align 8
  %20 = alloca ptr, align 8
  %21 = alloca ptr, align 8
  %22 = alloca ptr, align 8
  store ptr %0, ptr %5, align 8
  store ptr %1, ptr %6, align 8
  store ptr %2, ptr %7, align 8
  store ptr %3, ptr %8, align 8
  %23 = load ptr, ptr @type_typeid, align 8
  %24 = call ptr @type_lowering(ptr noundef %23)
  store ptr %24, ptr %9, align 8
  %25 = load ptr, ptr %5, align 8
  %26 = load ptr, ptr %7, align 8
  call void @llvm_value_rvalue(ptr noundef %25, ptr noundef %26)
  %27 = load ptr, ptr %5, align 8
  %28 = load ptr, ptr %8, align 8
  call void @llvm_value_rvalue(ptr noundef %27, ptr noundef %28)
  %29 = load ptr, ptr %7, align 8
  %30 = getelementptr inbounds %struct.BEValue, ptr %29, i32 0, i32 3
  %31 = load ptr, ptr %30, align 8
  store ptr %31, ptr %10, align 8
  %32 = load ptr, ptr %5, align 8
  %33 = getelementptr inbounds %struct.GenContext_, ptr %32, i32 0, i32 10
  %34 = load ptr, ptr %33, align 8
  store ptr %34, ptr %11, align 8
  %35 = load ptr, ptr %5, align 8
  %36 = call ptr @llvm_basic_block_new(ptr noundef %35, ptr noundef @.str.48)
  store ptr %36, ptr %12, align 8
  %37 = load ptr, ptr %5, align 8
  %38 = call ptr @llvm_basic_block_new(ptr noundef %37, ptr noundef @.str.49)
  store ptr %38, ptr %13, align 8
  %39 = load ptr, ptr %5, align 8
  %40 = call ptr @llvm_basic_block_new(ptr noundef %39, ptr noundef @.str.50)
  store ptr %40, ptr %14, align 8
  %41 = load ptr, ptr %5, align 8
  %42 = load ptr, ptr %12, align 8
  call void @llvm_emit_br(ptr noundef %41, ptr noundef %42)
  %43 = load ptr, ptr %5, align 8
  %44 = load ptr, ptr %12, align 8
  call void @llvm_emit_block(ptr noundef %43, ptr noundef %44)
  %45 = load ptr, ptr %5, align 8
  %46 = getelementptr inbounds %struct.GenContext_, ptr %45, i32 0, i32 8
  %47 = load ptr, ptr %46, align 8
  %48 = load ptr, ptr %5, align 8
  %49 = getelementptr inbounds %struct.GenContext_, ptr %48, i32 0, i32 25
  %50 = load ptr, ptr %49, align 8
  %51 = call ptr @LLVMBuildPhi(ptr noundef %47, ptr noundef %50, ptr noundef @.str.3)
  store ptr %51, ptr %15, align 8
  %52 = load ptr, ptr %5, align 8
  %53 = load ptr, ptr %9, align 8
  %54 = load ptr, ptr %9, align 8
  %55 = load ptr, ptr %10, align 8
  %56 = load ptr, ptr %15, align 8
  call void @llvm_emit_int_comp_raw(ptr noundef %52, ptr noundef %16, ptr noundef %53, ptr noundef %54, ptr noundef %55, ptr noundef %56, i32 noundef 19)
  %57 = load ptr, ptr %5, align 8
  %58 = load ptr, ptr %13, align 8
  %59 = load ptr, ptr %14, align 8
  call void @llvm_emit_cond_br(ptr noundef %57, ptr noundef %16, ptr noundef %58, ptr noundef %59)
  %60 = load ptr, ptr %5, align 8
  %61 = load ptr, ptr %14, align 8
  call void @llvm_emit_block(ptr noundef %60, ptr noundef %61)
  %62 = load ptr, ptr %5, align 8
  %63 = getelementptr inbounds %struct.GenContext_, ptr %62, i32 0, i32 8
  %64 = load ptr, ptr %63, align 8
  %65 = load ptr, ptr %15, align 8
  %66 = load ptr, ptr %5, align 8
  %67 = getelementptr inbounds %struct.GenContext_, ptr %66, i32 0, i32 27
  %68 = load ptr, ptr %67, align 8
  %69 = call ptr @LLVMBuildIntToPtr(ptr noundef %64, ptr noundef %65, ptr noundef %68, ptr noundef @.str.3)
  store ptr %69, ptr %17, align 8
  %70 = load ptr, ptr %5, align 8
  %71 = load ptr, ptr %17, align 8
  %72 = load ptr, ptr %5, align 8
  %73 = getelementptr inbounds %struct.GenContext_, ptr %72, i32 0, i32 22
  %74 = load ptr, ptr %73, align 8
  %75 = load ptr, ptr @type_voidptr, align 8
  %76 = call i32 @type_abi_alignment(ptr noundef %75)
  %77 = call ptr @llvm_emit_struct_gep_raw(ptr noundef %70, ptr noundef %71, ptr noundef %74, i32 noundef 1, i32 noundef %76, ptr noundef %18)
  store ptr %77, ptr %19, align 8
  %78 = load ptr, ptr %5, align 8
  %79 = load ptr, ptr %5, align 8
  %80 = getelementptr inbounds %struct.GenContext_, ptr %79, i32 0, i32 25
  %81 = load ptr, ptr %80, align 8
  %82 = load ptr, ptr %19, align 8
  %83 = load i32, ptr %18, align 4
  %84 = call ptr @llvm_load(ptr noundef %78, ptr noundef %81, ptr noundef %82, i32 noundef %83, ptr noundef @.str.51)
  store ptr %84, ptr %20, align 8
  %85 = load ptr, ptr %5, align 8
  %86 = getelementptr inbounds %struct.GenContext_, ptr %85, i32 0, i32 8
  %87 = load ptr, ptr %86, align 8
  %88 = load ptr, ptr %20, align 8
  %89 = load ptr, ptr %5, align 8
  %90 = getelementptr inbounds %struct.GenContext_, ptr %89, i32 0, i32 25
  %91 = load ptr, ptr %90, align 8
  %92 = call ptr @LLVMConstNull(ptr noundef %91)
  %93 = call ptr @LLVMBuildICmp(ptr noundef %87, i32 noundef 32, ptr noundef %88, ptr noundef %92, ptr noundef @.str.3)
  store ptr %93, ptr %21, align 8
  %94 = load ptr, ptr %5, align 8
  %95 = load ptr, ptr %21, align 8
  %96 = load ptr, ptr %13, align 8
  %97 = load ptr, ptr %12, align 8
  call void @llvm_emit_cond_br_raw(ptr noundef %94, ptr noundef %95, ptr noundef %96, ptr noundef %97)
  %98 = load ptr, ptr %15, align 8
  %99 = load ptr, ptr %8, align 8
  %100 = getelementptr inbounds %struct.BEValue, ptr %99, i32 0, i32 3
  %101 = load ptr, ptr %100, align 8
  %102 = load ptr, ptr %11, align 8
  %103 = load ptr, ptr %20, align 8
  %104 = load ptr, ptr %14, align 8
  call void @llvm_set_phi(ptr noundef %98, ptr noundef %101, ptr noundef %102, ptr noundef %103, ptr noundef %104)
  %105 = load ptr, ptr %5, align 8
  %106 = load ptr, ptr %13, align 8
  call void @llvm_emit_block(ptr noundef %105, ptr noundef %106)
  %107 = load ptr, ptr %5, align 8
  %108 = getelementptr inbounds %struct.GenContext_, ptr %107, i32 0, i32 8
  %109 = load ptr, ptr %108, align 8
  %110 = load ptr, ptr %5, align 8
  %111 = getelementptr inbounds %struct.GenContext_, ptr %110, i32 0, i32 20
  %112 = load ptr, ptr %111, align 8
  %113 = call ptr @LLVMBuildPhi(ptr noundef %109, ptr noundef %112, ptr noundef @.str.3)
  store ptr %113, ptr %22, align 8
  %114 = load ptr, ptr %22, align 8
  %115 = load ptr, ptr %5, align 8
  %116 = getelementptr inbounds %struct.GenContext_, ptr %115, i32 0, i32 20
  %117 = load ptr, ptr %116, align 8
  %118 = call ptr @LLVMConstNull(ptr noundef %117)
  %119 = load ptr, ptr %14, align 8
  %120 = load ptr, ptr %5, align 8
  %121 = getelementptr inbounds %struct.GenContext_, ptr %120, i32 0, i32 20
  %122 = load ptr, ptr %121, align 8
  %123 = call ptr @LLVMConstAllOnes(ptr noundef %122)
  %124 = load ptr, ptr %12, align 8
  call void @llvm_set_phi(ptr noundef %114, ptr noundef %118, ptr noundef %119, ptr noundef %123, ptr noundef %124)
  %125 = load ptr, ptr %6, align 8
  %126 = load ptr, ptr %22, align 8
  %127 = load ptr, ptr @type_bool, align 8
  call void @llvm_value_set(ptr noundef %125, ptr noundef %126, ptr noundef %127)
  ret void
}