; Function Attrs: nounwind uwtable
define dso_local void @llvm_emit_lhs_is_subtype(ptr noundef %0, ptr noundef %1, ptr noundef %2, ptr noundef %3) local_unnamed_addr #0 {
  %5 = alloca [2 x ptr], align 16
  %6 = alloca [2 x ptr], align 16
  %7 = alloca [2 x ptr], align 16
  %8 = alloca [2 x ptr], align 16
  %9 = alloca %struct.BEValue, align 8
  %10 = alloca i32, align 4
  %11 = load ptr, ptr @type_typeid, align 8
  %12 = tail call fastcc ptr @type_lowering(ptr noundef %11)
  tail call void @llvm_value_rvalue(ptr noundef %0, ptr noundef %2) #10
  tail call void @llvm_value_rvalue(ptr noundef %0, ptr noundef %3) #10
  %13 = getelementptr inbounds i8, ptr %2, i64 16
  %14 = load ptr, ptr %13, align 8
  %15 = getelementptr inbounds i8, ptr %0, i64 80
  %16 = load ptr, ptr %15, align 8
  %17 = tail call ptr @llvm_basic_block_new(ptr noundef %0, ptr noundef nonnull @.str.48) #10
  %18 = tail call ptr @llvm_basic_block_new(ptr noundef %0, ptr noundef nonnull @.str.49) #10
  %19 = tail call ptr @llvm_basic_block_new(ptr noundef %0, ptr noundef nonnull @.str.50) #10
  tail call void @llvm_emit_br(ptr noundef %0, ptr noundef %17) #10
  tail call void @llvm_emit_block(ptr noundef %0, ptr noundef %17) #10
  %20 = getelementptr inbounds i8, ptr %0, i64 64
  %21 = load ptr, ptr %20, align 8
  %22 = getelementptr inbounds i8, ptr %0, i64 200
  %23 = load ptr, ptr %22, align 8
  %24 = tail call ptr @LLVMBuildPhi(ptr noundef %21, ptr noundef %23, ptr noundef nonnull @.str.3) #10
  call void @llvm_emit_int_comp_raw(ptr noundef %0, ptr noundef nonnull %9, ptr noundef %12, ptr noundef %12, ptr noundef %14, ptr noundef %24, i32 noundef 19)
  call void @llvm_emit_cond_br(ptr noundef %0, ptr noundef nonnull %9, ptr noundef %18, ptr noundef %19) #10
  call void @llvm_emit_block(ptr noundef %0, ptr noundef %19) #10
  %25 = load ptr, ptr %20, align 8
  %26 = getelementptr inbounds i8, ptr %0, i64 216
  %27 = load ptr, ptr %26, align 8
  %28 = call ptr @LLVMBuildIntToPtr(ptr noundef %25, ptr noundef %24, ptr noundef %27, ptr noundef nonnull @.str.3) #10
  %29 = getelementptr inbounds i8, ptr %0, i64 176
  %30 = load ptr, ptr %29, align 8
  %31 = load ptr, ptr @type_voidptr, align 8
  %32 = call i32 @type_abi_alignment(ptr noundef %31) #10
  %33 = call ptr @llvm_emit_struct_gep_raw(ptr noundef %0, ptr noundef %28, ptr noundef %30, i32 noundef 1, i32 noundef %32, ptr noundef nonnull %10)
  %34 = load ptr, ptr %22, align 8
  %35 = load i32, ptr %10, align 4
  %36 = call ptr @llvm_load(ptr noundef %0, ptr noundef %34, ptr noundef %33, i32 noundef %35, ptr noundef nonnull @.str.51) #10
  %37 = load ptr, ptr %20, align 8
  %38 = load ptr, ptr %22, align 8
  %39 = call ptr @LLVMConstNull(ptr noundef %38) #10
  %40 = call ptr @LLVMBuildICmp(ptr noundef %37, i32 noundef 32, ptr noundef %36, ptr noundef %39, ptr noundef nonnull @.str.3) #10
  call void @llvm_emit_cond_br_raw(ptr noundef %0, ptr noundef %40, ptr noundef %18, ptr noundef %17) #10
  %41 = getelementptr inbounds i8, ptr %3, i64 16
  %42 = load ptr, ptr %41, align 8
  call void @llvm.lifetime.start.p0(i64 16, ptr nonnull %7)
  call void @llvm.lifetime.start.p0(i64 16, ptr nonnull %8)
  store ptr %42, ptr %7, align 16
  %43 = getelementptr inbounds i8, ptr %7, i64 8
  store ptr %36, ptr %43, align 8
  store ptr %16, ptr %8, align 16
  %44 = getelementptr inbounds i8, ptr %8, i64 8
  store ptr %19, ptr %44, align 8
  call void @LLVMAddIncoming(ptr noundef %24, ptr noundef nonnull %7, ptr noundef nonnull %8, i32 noundef 2) #10
  call void @llvm.lifetime.end.p0(i64 16, ptr nonnull %7)
  call void @llvm.lifetime.end.p0(i64 16, ptr nonnull %8)
  call void @llvm_emit_block(ptr noundef %0, ptr noundef %18) #10
  %45 = load ptr, ptr %20, align 8
  %46 = getelementptr inbounds i8, ptr %0, i64 160
  %47 = load ptr, ptr %46, align 8
  %48 = call ptr @LLVMBuildPhi(ptr noundef %45, ptr noundef %47, ptr noundef nonnull @.str.3) #10
  %49 = load ptr, ptr %46, align 8
  %50 = call ptr @LLVMConstNull(ptr noundef %49) #10
  %51 = load ptr, ptr %46, align 8
  %52 = call ptr @LLVMConstAllOnes(ptr noundef %51) #10
  call void @llvm.lifetime.start.p0(i64 16, ptr nonnull %5)
  call void @llvm.lifetime.start.p0(i64 16, ptr nonnull %6)
  store ptr %50, ptr %5, align 16
  %53 = getelementptr inbounds i8, ptr %5, i64 8
  store ptr %52, ptr %53, align 8
  store ptr %19, ptr %6, align 16
  %54 = getelementptr inbounds i8, ptr %6, i64 8
  store ptr %17, ptr %54, align 8
  call void @LLVMAddIncoming(ptr noundef %48, ptr noundef nonnull %5, ptr noundef nonnull %6, i32 noundef 2) #10
  call void @llvm.lifetime.end.p0(i64 16, ptr nonnull %5)
  call void @llvm.lifetime.end.p0(i64 16, ptr nonnull %6)
  %55 = load ptr, ptr @type_bool, align 8
  call void @llvm_value_set(ptr noundef %1, ptr noundef %48, ptr noundef %55) #10
  ret void
}